target datalayout = "e-m:e-p270:32:32-p271:32:32-p272:64:64-i64:64-i128:128-f80:128-n8:16:32:64-S128"
target triple = "x86_64-pc-linux-gnu"

@pSupps = internal global ptr null, align 8

; Function Attrs: nounwind uwtable
define i32 @Abc_NtkCompareConesCompare(ptr noundef %0, ptr noundef %1) #0 {
  %3 = alloca i32, align 4
  %4 = alloca ptr, align 8
  %5 = alloca ptr, align 8
  store ptr %0, ptr %4, align 8
  store ptr %1, ptr %5, align 8
  %6 = load ptr, ptr @pSupps, align 8
  %7 = load ptr, ptr %4, align 8
  %8 = load i32, ptr %7, align 4
  %9 = sext i32 %8 to i64
  %10 = getelementptr inbounds i32, ptr %6, i64 %9
  %11 = load i32, ptr %10, align 4
  %12 = load ptr, ptr @pSupps, align 8
  %13 = load ptr, ptr %5, align 8
  %14 = load i32, ptr %13, align 4
  %15 = sext i32 %14 to i64
  %16 = getelementptr inbounds i32, ptr %12, i64 %15
  %17 = load i32, ptr %16, align 4
  %18 = icmp sgt i32 %11, %17
  br i1 %18, label %19, label %20

19:                                               ; preds = %2
  store i32 -1, ptr %3, align 4
  br label %36

20:                                               ; preds = %2
  %21 = load ptr, ptr @pSupps, align 8
  %22 = load ptr, ptr %4, align 8
  %23 = load i32, ptr %22, align 4
  %24 = sext i32 %23 to i64
  %25 = getelementptr inbounds i32, ptr %21, i64 %24
  %26 = load i32, ptr %25, align 4
  %27 = load ptr, ptr @pSupps, align 8
  %28 = load ptr, ptr %5, align 8
  %29 = load i32, ptr %28, align 4
  %30 = sext i32 %29 to i64
  %31 = getelementptr inbounds i32, ptr %27, i64 %30
  %32 = load i32, ptr %31, align 4
  %33 = icmp slt i32 %26, %32
  br i1 %33, label %34, label %35

34:                                               ; preds = %20
  store i32 1, ptr %3, align 4
  br label %36

35:                                               ; preds = %20
  store i32 0, ptr %3, align 4
  br label %36

36:                                               ; preds = %35, %34, %19
  %37 = load i32, ptr %3, align 4
  ret i32 %37
}