; Function Attrs: mustprogress nofree norecurse nosync nounwind willreturn memory(read, inaccessiblemem: none) uwtable
define range(i32 -1, 2) i32 @Abc_NtkCompareConesCompare(ptr noundef readonly captures(none) %0, ptr noundef readonly captures(none) %1) #4 {
  %3 = load ptr, ptr @pSupps, align 8
  %4 = load i32, ptr %0, align 4
  %5 = sext i32 %4 to i64
  %6 = getelementptr inbounds i32, ptr %3, i64 %5
  %7 = load i32, ptr %6, align 4
  %8 = load i32, ptr %1, align 4
  %9 = sext i32 %8 to i64
  %10 = getelementptr inbounds i32, ptr %3, i64 %9
  %11 = load i32, ptr %10, align 4
  %.0 = tail call i32 @llvm.scmp.i32.i32(i32 %11, i32 %7)
  ret i32 %.0
}